target datalayout = "e-m:e-p270:32:32-p271:32:32-p272:64:64-i64:64-i128:128-f80:128-n8:16:32:64-S128"
target triple = "x86_64-pc-linux-gnu"

%struct.ssh_peer_data = type { i32, i32, i32, i32, i32, i32, ptr, [2 x ptr], ptr, i32, [2 x ptr], ptr, [2 x ptr], ptr, i32, i32, i32, ptr, ptr, i32, i32, i32, i32, i32, i32, i32, i32, i32, i32, i32, ptr, [12 x i8], [48 x i8], i32, ptr, ptr, ptr }

@.str.424 = private unnamed_addr constant [23 x i8] c"aes128-gcm@openssh.com\00", align 1
@.str.425 = private unnamed_addr constant [23 x i8] c"aes256-gcm@openssh.com\00", align 1
@.str.427 = private unnamed_addr constant [30 x i8] c"chacha20-poly1305@openssh.com\00", align 1
@.str.436 = private unnamed_addr constant [11 x i8] c"aes128-gcm\00", align 1
@.str.437 = private unnamed_addr constant [11 x i8] c"aes256-gcm\00", align 1
@.str.438 = private unnamed_addr constant [11 x i8] c"aes128-cbc\00", align 1
@.str.439 = private unnamed_addr constant [11 x i8] c"aes192-cbc\00", align 1
@.str.440 = private unnamed_addr constant [11 x i8] c"aes256-cbc\00", align 1
@.str.441 = private unnamed_addr constant [11 x i8] c"aes128-ctr\00", align 1
@.str.442 = private unnamed_addr constant [11 x i8] c"aes192-ctr\00", align 1
@.str.443 = private unnamed_addr constant [11 x i8] c"aes256-ctr\00", align 1

; Function Attrs: nounwind uwtable
define internal void @ssh_decryption_set_cipher_id(ptr noundef %0) #0 {
  %2 = alloca ptr, align 8
  %3 = alloca ptr, align 8
  store ptr %0, ptr %2, align 8
  %4 = load ptr, ptr %2, align 8
  %5 = getelementptr inbounds %struct.ssh_peer_data, ptr %4, i32 0, i32 11
  %6 = load ptr, ptr %5, align 8
  store ptr %6, ptr %3, align 8
  %7 = load ptr, ptr %3, align 8
  %8 = icmp ne ptr %7, null
  br i1 %8, label %14, label %9

9:                                                ; preds = %1
  %10 = load ptr, ptr %2, align 8
  %11 = getelementptr inbounds %struct.ssh_peer_data, ptr %10, i32 0, i32 17
  store ptr null, ptr %11, align 8
  br label %12

12:                                               ; preds = %9
  br label %13

13:                                               ; preds = %12
  br label %107

14:                                               ; preds = %1
  %15 = load ptr, ptr %3, align 8
  %16 = call i32 @strcmp(ptr noundef %15, ptr noundef @.str.427) #11
  %17 = icmp eq i32 0, %16
  br i1 %17, label %18, label %21

18:                                               ; preds = %14
  %19 = load ptr, ptr %2, align 8
  %20 = getelementptr inbounds %struct.ssh_peer_data, ptr %19, i32 0, i32 15
  store i32 316, ptr %20, align 4
  br label %106

21:                                               ; preds = %14
  %22 = load ptr, ptr %3, align 8
  %23 = call i32 @strcmp(ptr noundef %22, ptr noundef @.str.424) #11
  %24 = icmp eq i32 0, %23
  br i1 %24, label %25, label %28

25:                                               ; preds = %21
  %26 = load ptr, ptr %2, align 8
  %27 = getelementptr inbounds %struct.ssh_peer_data, ptr %26, i32 0, i32 15
  store i32 262145, ptr %27, align 4
  br label %105

28:                                               ; preds = %21
  %29 = load ptr, ptr %3, align 8
  %30 = call i32 @strcmp(ptr noundef %29, ptr noundef @.str.436) #11
  %31 = icmp eq i32 0, %30
  br i1 %31, label %32, label %35

32:                                               ; preds = %28
  %33 = load ptr, ptr %2, align 8
  %34 = getelementptr inbounds %struct.ssh_peer_data, ptr %33, i32 0, i32 15
  store i32 262145, ptr %34, align 4
  br label %104

35:                                               ; preds = %28
  %36 = load ptr, ptr %3, align 8
  %37 = call i32 @strcmp(ptr noundef %36, ptr noundef @.str.425) #11
  %38 = icmp eq i32 0, %37
  br i1 %38, label %39, label %42

39:                                               ; preds = %35
  %40 = load ptr, ptr %2, align 8
  %41 = getelementptr inbounds %struct.ssh_peer_data, ptr %40, i32 0, i32 15
  store i32 262148, ptr %41, align 4
  br label %103

42:                                               ; preds = %35
  %43 = load ptr, ptr %3, align 8
  %44 = call i32 @strcmp(ptr noundef %43, ptr noundef @.str.437) #11
  %45 = icmp eq i32 0, %44
  br i1 %45, label %46, label %49

46:                                               ; preds = %42
  %47 = load ptr, ptr %2, align 8
  %48 = getelementptr inbounds %struct.ssh_peer_data, ptr %47, i32 0, i32 15
  store i32 262148, ptr %48, align 4
  br label %102

49:                                               ; preds = %42
  %50 = load ptr, ptr %3, align 8
  %51 = call i32 @strcmp(ptr noundef %50, ptr noundef @.str.438) #11
  %52 = icmp eq i32 0, %51
  br i1 %52, label %53, label %56

53:                                               ; preds = %49
  %54 = load ptr, ptr %2, align 8
  %55 = getelementptr inbounds %struct.ssh_peer_data, ptr %54, i32 0, i32 15
  store i32 131073, ptr %55, align 4
  br label %101

56:                                               ; preds = %49
  %57 = load ptr, ptr %3, align 8
  %58 = call i32 @strcmp(ptr noundef %57, ptr noundef @.str.439) #11
  %59 = icmp eq i32 0, %58
  br i1 %59, label %60, label %63

60:                                               ; preds = %56
  %61 = load ptr, ptr %2, align 8
  %62 = getelementptr inbounds %struct.ssh_peer_data, ptr %61, i32 0, i32 15
  store i32 131074, ptr %62, align 4
  br label %100

63:                                               ; preds = %56
  %64 = load ptr, ptr %3, align 8
  %65 = call i32 @strcmp(ptr noundef %64, ptr noundef @.str.440) #11
  %66 = icmp eq i32 0, %65
  br i1 %66, label %67, label %70

67:                                               ; preds = %63
  %68 = load ptr, ptr %2, align 8
  %69 = getelementptr inbounds %struct.ssh_peer_data, ptr %68, i32 0, i32 15
  store i32 131076, ptr %69, align 4
  br label %99

70:                                               ; preds = %63
  %71 = load ptr, ptr %3, align 8
  %72 = call i32 @strcmp(ptr noundef %71, ptr noundef @.str.441) #11
  %73 = icmp eq i32 0, %72
  br i1 %73, label %74, label %77

74:                                               ; preds = %70
  %75 = load ptr, ptr %2, align 8
  %76 = getelementptr inbounds %struct.ssh_peer_data, ptr %75, i32 0, i32 15
  store i32 65537, ptr %76, align 4
  br label %98

77:                                               ; preds = %70
  %78 = load ptr, ptr %3, align 8
  %79 = call i32 @strcmp(ptr noundef %78, ptr noundef @.str.442) #11
  %80 = icmp eq i32 0, %79
  br i1 %80, label %81, label %84

81:                                               ; preds = %77
  %82 = load ptr, ptr %2, align 8
  %83 = getelementptr inbounds %struct.ssh_peer_data, ptr %82, i32 0, i32 15
  store i32 65539, ptr %83, align 4
  br label %97

84:                                               ; preds = %77
  %85 = load ptr, ptr %3, align 8
  %86 = call i32 @strcmp(ptr noundef %85, ptr noundef @.str.443) #11
  %87 = icmp eq i32 0, %86
  br i1 %87, label %88, label %91

88:                                               ; preds = %84
  %89 = load ptr, ptr %2, align 8
  %90 = getelementptr inbounds %struct.ssh_peer_data, ptr %89, i32 0, i32 15
  store i32 65540, ptr %90, align 4
  br label %96

91:                                               ; preds = %84
  %92 = load ptr, ptr %2, align 8
  %93 = getelementptr inbounds %struct.ssh_peer_data, ptr %92, i32 0, i32 17
  store ptr null, ptr %93, align 8
  br label %94

94:                                               ; preds = %91
  br label %95

95:                                               ; preds = %94
  br label %96

96:                                               ; preds = %95, %88
  br label %97

97:                                               ; preds = %96, %81
  br label %98

98:                                               ; preds = %97, %74
  br label %99

99:                                               ; preds = %98, %67
  br label %100

100:                                              ; preds = %99, %60
  br label %101

101:                                              ; preds = %100, %53
  br label %102

102:                                              ; preds = %101, %46
  br label %103

103:                                              ; preds = %102, %39
  br label %104

104:                                              ; preds = %103, %32
  br label %105

105:                                              ; preds = %104, %25
  br label %106

106:                                              ; preds = %105, %18
  br label %107

107:                                              ; preds = %106, %13
  ret void
}