; Function Attrs: mustprogress nofree nounwind willreturn memory(read, argmem: readwrite, inaccessiblemem: none) uwtable
define internal fastcc void @ssh_decryption_set_cipher_id(ptr noundef captures(none) %0) unnamed_addr #10 {
  %2 = getelementptr inbounds nuw i8, ptr %0, i64 80
  %3 = load ptr, ptr %2, align 8
  %.not = icmp eq ptr %3, null
  br i1 %.not, label %4, label %6

4:                                                ; preds = %1
  %5 = getelementptr inbounds nuw i8, ptr %0, i64 128
  store ptr null, ptr %5, align 8
  br label %63

6:                                                ; preds = %1
  %7 = tail call i32 @strcmp(ptr noundef nonnull dereferenceable(1) %3, ptr noundef nonnull dereferenceable(30) @.str.427) #22
  %8 = icmp eq i32 %7, 0
  br i1 %8, label %9, label %11

9:                                                ; preds = %6
  %10 = getelementptr inbounds nuw i8, ptr %0, i64 116
  store i32 316, ptr %10, align 4
  br label %63

11:                                               ; preds = %6
  %12 = tail call i32 @strcmp(ptr noundef nonnull dereferenceable(1) %3, ptr noundef nonnull dereferenceable(23) @.str.424) #22
  %13 = icmp eq i32 %12, 0
  br i1 %13, label %14, label %16

14:                                               ; preds = %11
  %15 = getelementptr inbounds nuw i8, ptr %0, i64 116
  store i32 262145, ptr %15, align 4
  br label %63

16:                                               ; preds = %11
  %17 = tail call i32 @strcmp(ptr noundef nonnull dereferenceable(1) %3, ptr noundef nonnull dereferenceable(11) @.str.436) #22
  %18 = icmp eq i32 %17, 0
  br i1 %18, label %19, label %21

19:                                               ; preds = %16
  %20 = getelementptr inbounds nuw i8, ptr %0, i64 116
  store i32 262145, ptr %20, align 4
  br label %63

21:                                               ; preds = %16
  %22 = tail call i32 @strcmp(ptr noundef nonnull dereferenceable(1) %3, ptr noundef nonnull dereferenceable(23) @.str.425) #22
  %23 = icmp eq i32 %22, 0
  br i1 %23, label %24, label %26

24:                                               ; preds = %21
  %25 = getelementptr inbounds nuw i8, ptr %0, i64 116
  store i32 262148, ptr %25, align 4
  br label %63

26:                                               ; preds = %21
  %27 = tail call i32 @strcmp(ptr noundef nonnull dereferenceable(1) %3, ptr noundef nonnull dereferenceable(11) @.str.437) #22
  %28 = icmp eq i32 %27, 0
  br i1 %28, label %29, label %31

29:                                               ; preds = %26
  %30 = getelementptr inbounds nuw i8, ptr %0, i64 116
  store i32 262148, ptr %30, align 4
  br label %63

31:                                               ; preds = %26
  %32 = tail call i32 @strcmp(ptr noundef nonnull dereferenceable(1) %3, ptr noundef nonnull dereferenceable(11) @.str.438) #22
  %33 = icmp eq i32 %32, 0
  br i1 %33, label %34, label %36

34:                                               ; preds = %31
  %35 = getelementptr inbounds nuw i8, ptr %0, i64 116
  store i32 131073, ptr %35, align 4
  br label %63

36:                                               ; preds = %31
  %37 = tail call i32 @strcmp(ptr noundef nonnull dereferenceable(1) %3, ptr noundef nonnull dereferenceable(11) @.str.439) #22
  %38 = icmp eq i32 %37, 0
  br i1 %38, label %39, label %41

39:                                               ; preds = %36
  %40 = getelementptr inbounds nuw i8, ptr %0, i64 116
  store i32 131074, ptr %40, align 4
  br label %63

41:                                               ; preds = %36
  %42 = tail call i32 @strcmp(ptr noundef nonnull dereferenceable(1) %3, ptr noundef nonnull dereferenceable(11) @.str.440) #22
  %43 = icmp eq i32 %42, 0
  br i1 %43, label %44, label %46

44:                                               ; preds = %41
  %45 = getelementptr inbounds nuw i8, ptr %0, i64 116
  store i32 131076, ptr %45, align 4
  br label %63

46:                                               ; preds = %41
  %47 = tail call i32 @strcmp(ptr noundef nonnull dereferenceable(1) %3, ptr noundef nonnull dereferenceable(11) @.str.441) #22
  %48 = icmp eq i32 %47, 0
  br i1 %48, label %49, label %51

49:                                               ; preds = %46
  %50 = getelementptr inbounds nuw i8, ptr %0, i64 116
  store i32 65537, ptr %50, align 4
  br label %63

51:                                               ; preds = %46
  %52 = tail call i32 @strcmp(ptr noundef nonnull dereferenceable(1) %3, ptr noundef nonnull dereferenceable(11) @.str.442) #22
  %53 = icmp eq i32 %52, 0
  br i1 %53, label %54, label %56

54:                                               ; preds = %51
  %55 = getelementptr inbounds nuw i8, ptr %0, i64 116
  store i32 65539, ptr %55, align 4
  br label %63

56:                                               ; preds = %51
  %57 = tail call i32 @strcmp(ptr noundef nonnull dereferenceable(1) %3, ptr noundef nonnull dereferenceable(11) @.str.443) #22
  %58 = icmp eq i32 %57, 0
  br i1 %58, label %59, label %61

59:                                               ; preds = %56
  %60 = getelementptr inbounds nuw i8, ptr %0, i64 116
  store i32 65540, ptr %60, align 4
  br label %63

61:                                               ; preds = %56
  %62 = getelementptr inbounds nuw i8, ptr %0, i64 128
  store ptr null, ptr %62, align 8
  br label %63

63:                                               ; preds = %9, %19, %29, %39, %49, %59, %61, %54, %44, %34, %24, %14, %4
  ret void
}